target datalayout = "e-m:e-p270:32:32-p271:32:32-p272:64:64-i64:64-i128:128-f80:128-n8:16:32:64-S128"
target triple = "x86_64-pc-linux-gnu"

%"class.llvm::cl::opt" = type { %"class.llvm::cl::Option", %"class.llvm::cl::opt_storage", %"class.llvm::cl::parser", %"class.std::function" }
%"class.llvm::cl::Option" = type { ptr, i16, i16, i16, i16, %"class.llvm::StringRef", %"class.llvm::StringRef", %"class.llvm::StringRef", %"class.llvm::SmallVector", %"class.llvm::SmallPtrSet" }
%"class.llvm::StringRef" = type { ptr, i64 }
%"class.llvm::SmallVector" = type { %"class.llvm::SmallVectorImpl", %"struct.llvm::SmallVectorStorage" }
%"class.llvm::SmallVectorImpl" = type { %"class.llvm::SmallVectorTemplateBase" }
%"class.llvm::SmallVectorTemplateBase" = type { %"class.llvm::SmallVectorTemplateCommon" }
%"class.llvm::SmallVectorTemplateCommon" = type { %"class.llvm::SmallVectorBase" }
%"class.llvm::SmallVectorBase" = type { ptr, i32, i32 }
%"struct.llvm::SmallVectorStorage" = type { [8 x i8] }
%"class.llvm::SmallPtrSet" = type { %"class.llvm::SmallPtrSetImpl.base", [1 x ptr] }
%"class.llvm::SmallPtrSetImpl.base" = type { %"class.llvm::SmallPtrSetImplBase.base" }
%"class.llvm::SmallPtrSetImplBase.base" = type <{ ptr, ptr, i32, i32, i32 }>
%"class.llvm::cl::opt_storage" = type { i8, [7 x i8], %"struct.llvm::cl::OptionValue" }
%"struct.llvm::cl::OptionValue" = type { %"struct.llvm::cl::OptionValueBase.base", [6 x i8] }
%"struct.llvm::cl::OptionValueBase.base" = type { %"class.llvm::cl::OptionValueCopy.base" }
%"class.llvm::cl::OptionValueCopy.base" = type <{ %"struct.llvm::cl::GenericOptionValue", i8, i8 }>
%"struct.llvm::cl::GenericOptionValue" = type { ptr }
%"class.llvm::cl::parser" = type { %"class.llvm::cl::basic_parser" }
%"class.llvm::cl::basic_parser" = type { %"class.llvm::cl::basic_parser_impl" }
%"class.llvm::cl::basic_parser_impl" = type { ptr }
%"class.std::function" = type { %"class.std::_Function_base", ptr }
%"class.std::_Function_base" = type { %"union.std::_Any_data", ptr }
%"union.std::_Any_data" = type { %"union.std::_Nocopy_types" }
%"union.std::_Nocopy_types" = type { { i64, i64 } }
%"class.llvm::cl::opt.0" = type { %"class.llvm::cl::Option", %"class.llvm::cl::opt_storage.1", %"class.llvm::cl::parser.8", %"class.std::function.10" }
%"class.llvm::cl::opt_storage.1" = type { i32, [4 x i8], %"struct.llvm::cl::OptionValue.2" }
%"struct.llvm::cl::OptionValue.2" = type { %"struct.llvm::cl::OptionValueBase.base.6", [3 x i8] }
%"struct.llvm::cl::OptionValueBase.base.6" = type { %"class.llvm::cl::OptionValueCopy.base.5" }
%"class.llvm::cl::OptionValueCopy.base.5" = type <{ %"struct.llvm::cl::GenericOptionValue", i32, i8 }>
%"class.llvm::cl::parser.8" = type { %"class.llvm::cl::basic_parser.9" }
%"class.llvm::cl::basic_parser.9" = type { %"class.llvm::cl::basic_parser_impl" }
%"class.std::function.10" = type { %"class.std::_Function_base", ptr }
%"struct.llvm::ProfiParams" = type { i8, i8, i8, i32, i32, i32, i32, i32, i32, i32, i32, i32, i32, i32, i32, i64 }

@_ZN12_GLOBAL__N_133SampleProfileEvenFlowDistributionE = internal global %"class.llvm::cl::opt" zeroinitializer, align 8
@_ZN12_GLOBAL__N_129SampleProfileRebalanceUnknownE = internal global %"class.llvm::cl::opt" zeroinitializer, align 8
@_ZN12_GLOBAL__N_124SampleProfileJoinIslandsE = internal global %"class.llvm::cl::opt" zeroinitializer, align 8
@_ZN12_GLOBAL__N_130SampleProfileProfiCostBlockIncE = internal global %"class.llvm::cl::opt.0" zeroinitializer, align 8
@_ZN12_GLOBAL__N_130SampleProfileProfiCostBlockDecE = internal global %"class.llvm::cl::opt.0" zeroinitializer, align 8
@_ZN12_GLOBAL__N_135SampleProfileProfiCostBlockEntryIncE = internal global %"class.llvm::cl::opt.0" zeroinitializer, align 8
@_ZN12_GLOBAL__N_135SampleProfileProfiCostBlockEntryDecE = internal global %"class.llvm::cl::opt.0" zeroinitializer, align 8
@_ZN12_GLOBAL__N_134SampleProfileProfiCostBlockZeroIncE = internal global %"class.llvm::cl::opt.0" zeroinitializer, align 8
@_ZN12_GLOBAL__N_137SampleProfileProfiCostBlockUnknownIncE = internal global %"class.llvm::cl::opt.0" zeroinitializer, align 8

; Function Attrs: mustprogress nounwind uwtable
define linkonce_odr hidden noundef i32 @_ZNK4llvm2cl11opt_storageIjLb0ELb0EE8getValueEv(ptr noundef nonnull align 8 dereferenceable(24) %0) #1 comdat align 2 {
  %2 = alloca ptr, align 8
  store ptr %0, ptr %2, align 8
  %3 = load ptr, ptr %2, align 8
  %4 = getelementptr inbounds nuw %"class.llvm::cl::opt_storage.1", ptr %3, i32 0, i32 0
  %5 = load i32, ptr %4, align 8
  ret i32 %5
}

; Function Attrs: mustprogress nounwind uwtable
define linkonce_odr hidden noundef zeroext i1 @_ZNK4llvm2cl11opt_storageIbLb0ELb0EE8getValueEv(ptr noundef nonnull align 8 dereferenceable(24) %0) #1 comdat align 2 {
  %2 = alloca ptr, align 8
  store ptr %0, ptr %2, align 8
  %3 = load ptr, ptr %2, align 8
  %4 = getelementptr inbounds nuw %"class.llvm::cl::opt_storage", ptr %3, i32 0, i32 0
  %5 = load i8, ptr %4, align 8
  %6 = trunc i8 %5 to i1
  ret i1 %6
}

; Function Attrs: mustprogress nounwind uwtable
define linkonce_odr hidden noundef i32 @_ZNK4llvm2cl11opt_storageIjLb0ELb0EEcvjEv(ptr noundef nonnull align 8 dereferenceable(24) %0) #1 comdat align 2 {
  %2 = alloca ptr, align 8
  store ptr %0, ptr %2, align 8
  %3 = load ptr, ptr %2, align 8
  %4 = call noundef i32 @_ZNK4llvm2cl11opt_storageIjLb0ELb0EE8getValueEv(ptr noundef nonnull align 8 dereferenceable(24) %3)
  ret i32 %4
}

; Function Attrs: mustprogress nounwind uwtable
define linkonce_odr hidden noundef zeroext i1 @_ZNK4llvm2cl11opt_storageIbLb0ELb0EEcvbEv(ptr noundef nonnull align 8 dereferenceable(24) %0) #1 comdat align 2 {
  %2 = alloca ptr, align 8
  store ptr %0, ptr %2, align 8
  %3 = load ptr, ptr %2, align 8
  %4 = call noundef zeroext i1 @_ZNK4llvm2cl11opt_storageIbLb0ELb0EE8getValueEv(ptr noundef nonnull align 8 dereferenceable(24) %3)
  ret i1 %4
}

; Function Attrs: mustprogress nounwind uwtable
define linkonce_odr hidden void @_ZN4llvm11ProfiParamsC2Ev(ptr noundef nonnull align 8 dereferenceable(64) %0) unnamed_addr #1 comdat align 2 {
  %2 = alloca ptr, align 8
  store ptr %0, ptr %2, align 8
  %3 = load ptr, ptr %2, align 8
  %4 = getelementptr inbounds nuw %"struct.llvm::ProfiParams", ptr %3, i32 0, i32 0
  store i8 0, ptr %4, align 8
  %5 = getelementptr inbounds nuw %"struct.llvm::ProfiParams", ptr %3, i32 0, i32 1
  store i8 0, ptr %5, align 1
  %6 = getelementptr inbounds nuw %"struct.llvm::ProfiParams", ptr %3, i32 0, i32 2
  store i8 0, ptr %6, align 2
  %7 = getelementptr inbounds nuw %"struct.llvm::ProfiParams", ptr %3, i32 0, i32 3
  store i32 0, ptr %7, align 4
  %8 = getelementptr inbounds nuw %"struct.llvm::ProfiParams", ptr %3, i32 0, i32 4
  store i32 0, ptr %8, align 8
  %9 = getelementptr inbounds nuw %"struct.llvm::ProfiParams", ptr %3, i32 0, i32 5
  store i32 0, ptr %9, align 4
  %10 = getelementptr inbounds nuw %"struct.llvm::ProfiParams", ptr %3, i32 0, i32 6
  store i32 0, ptr %10, align 8
  %11 = getelementptr inbounds nuw %"struct.llvm::ProfiParams", ptr %3, i32 0, i32 7
  store i32 0, ptr %11, align 4
  %12 = getelementptr inbounds nuw %"struct.llvm::ProfiParams", ptr %3, i32 0, i32 8
  store i32 0, ptr %12, align 8
  %13 = getelementptr inbounds nuw %"struct.llvm::ProfiParams", ptr %3, i32 0, i32 9
  store i32 0, ptr %13, align 4
  %14 = getelementptr inbounds nuw %"struct.llvm::ProfiParams", ptr %3, i32 0, i32 10
  store i32 0, ptr %14, align 8
  %15 = getelementptr inbounds nuw %"struct.llvm::ProfiParams", ptr %3, i32 0, i32 11
  store i32 0, ptr %15, align 4
  %16 = getelementptr inbounds nuw %"struct.llvm::ProfiParams", ptr %3, i32 0, i32 12
  store i32 0, ptr %16, align 8
  %17 = getelementptr inbounds nuw %"struct.llvm::ProfiParams", ptr %3, i32 0, i32 13
  store i32 0, ptr %17, align 4
  %18 = getelementptr inbounds nuw %"struct.llvm::ProfiParams", ptr %3, i32 0, i32 14
  store i32 0, ptr %18, align 8
  %19 = getelementptr inbounds nuw %"struct.llvm::ProfiParams", ptr %3, i32 0, i32 15
  store i64 1073741824, ptr %19, align 8
  ret void
}

; Function Attrs: mustprogress nounwind uwtable
define dso_local void @_ZN4llvm18applyFlowInferenceERNS_12FlowFunctionE(ptr noundef nonnull align 8 dereferenceable(56) %0) #1 {
  %2 = alloca ptr, align 8
  %3 = alloca %"struct.llvm::ProfiParams", align 8
  store ptr %0, ptr %2, align 8
  call void @_ZN4llvm11ProfiParamsC2Ev(ptr noundef nonnull align 8 dereferenceable(64) %3) #2
  %4 = call noundef zeroext i1 @_ZNK4llvm2cl11opt_storageIbLb0ELb0EEcvbEv(ptr noundef nonnull align 8 dereferenceable(24) getelementptr inbounds (i8, ptr @_ZN12_GLOBAL__N_133SampleProfileEvenFlowDistributionE, i64 128))
  %5 = getelementptr inbounds nuw %"struct.llvm::ProfiParams", ptr %3, i32 0, i32 0
  %6 = zext i1 %4 to i8
  store i8 %6, ptr %5, align 8
  %7 = call noundef zeroext i1 @_ZNK4llvm2cl11opt_storageIbLb0ELb0EEcvbEv(ptr noundef nonnull align 8 dereferenceable(24) getelementptr inbounds (i8, ptr @_ZN12_GLOBAL__N_129SampleProfileRebalanceUnknownE, i64 128))
  %8 = getelementptr inbounds nuw %"struct.llvm::ProfiParams", ptr %3, i32 0, i32 1
  %9 = zext i1 %7 to i8
  store i8 %9, ptr %8, align 1
  %10 = call noundef zeroext i1 @_ZNK4llvm2cl11opt_storageIbLb0ELb0EEcvbEv(ptr noundef nonnull align 8 dereferenceable(24) getelementptr inbounds (i8, ptr @_ZN12_GLOBAL__N_124SampleProfileJoinIslandsE, i64 128))
  %11 = getelementptr inbounds nuw %"struct.llvm::ProfiParams", ptr %3, i32 0, i32 2
  %12 = zext i1 %10 to i8
  store i8 %12, ptr %11, align 2
  %13 = call noundef i32 @_ZNK4llvm2cl11opt_storageIjLb0ELb0EEcvjEv(ptr noundef nonnull align 8 dereferenceable(24) getelementptr inbounds (i8, ptr @_ZN12_GLOBAL__N_130SampleProfileProfiCostBlockIncE, i64 128))
  %14 = getelementptr inbounds nuw %"struct.llvm::ProfiParams", ptr %3, i32 0, i32 3
  store i32 %13, ptr %14, align 4
  %15 = call noundef i32 @_ZNK4llvm2cl11opt_storageIjLb0ELb0EEcvjEv(ptr noundef nonnull align 8 dereferenceable(24) getelementptr inbounds (i8, ptr @_ZN12_GLOBAL__N_130SampleProfileProfiCostBlockDecE, i64 128))
  %16 = getelementptr inbounds nuw %"struct.llvm::ProfiParams", ptr %3, i32 0, i32 4
  store i32 %15, ptr %16, align 8
  %17 = call noundef i32 @_ZNK4llvm2cl11opt_storageIjLb0ELb0EEcvjEv(ptr noundef nonnull align 8 dereferenceable(24) getelementptr inbounds (i8, ptr @_ZN12_GLOBAL__N_135SampleProfileProfiCostBlockEntryIncE, i64 128))
  %18 = getelementptr inbounds nuw %"struct.llvm::ProfiParams", ptr %3, i32 0, i32 6
  store i32 %17, ptr %18, align 8
  %19 = call noundef i32 @_ZNK4llvm2cl11opt_storageIjLb0ELb0EEcvjEv(ptr noundef nonnull align 8 dereferenceable(24) getelementptr inbounds (i8, ptr @_ZN12_GLOBAL__N_135SampleProfileProfiCostBlockEntryDecE, i64 128))
  %20 = getelementptr inbounds nuw %"struct.llvm::ProfiParams", ptr %3, i32 0, i32 7
  store i32 %19, ptr %20, align 4
  %21 = call noundef i32 @_ZNK4llvm2cl11opt_storageIjLb0ELb0EEcvjEv(ptr noundef nonnull align 8 dereferenceable(24) getelementptr inbounds (i8, ptr @_ZN12_GLOBAL__N_134SampleProfileProfiCostBlockZeroIncE, i64 128))
  %22 = getelementptr inbounds nuw %"struct.llvm::ProfiParams", ptr %3, i32 0, i32 5
  store i32 %21, ptr %22, align 4
  %23 = call noundef i32 @_ZNK4llvm2cl11opt_storageIjLb0ELb0EEcvjEv(ptr noundef nonnull align 8 dereferenceable(24) getelementptr inbounds (i8, ptr @_ZN12_GLOBAL__N_137SampleProfileProfiCostBlockUnknownIncE, i64 128))
  %24 = getelementptr inbounds nuw %"struct.llvm::ProfiParams", ptr %3, i32 0, i32 8
  store i32 %23, ptr %24, align 8
  %25 = load ptr, ptr %2, align 8
  call void @_ZN4llvm18applyFlowInferenceERKNS_11ProfiParamsERNS_12FlowFunctionE(ptr noundef nonnull align 8 dereferenceable(64) %3, ptr noundef nonnull align 8 dereferenceable(56) %25)
  ret void
}