; Function Attrs: mustprogress nounwind uwtable
define dso_local void @_ZN4llvm18applyFlowInferenceERNS_12FlowFunctionE(ptr noundef nonnull align 8 dereferenceable(56) %0) local_unnamed_addr #0 {
  %2 = alloca %"struct.llvm::ProfiParams", align 8
  %3 = getelementptr inbounds nuw i8, ptr %2, i64 1
  %4 = getelementptr inbounds nuw i8, ptr %2, i64 2
  %5 = getelementptr inbounds nuw i8, ptr %2, i64 4
  %6 = getelementptr inbounds nuw i8, ptr %2, i64 56
  %7 = getelementptr inbounds i8, ptr %2, i64 28
  call void @llvm.memset.p0.i64(ptr noundef nonnull align 4 dereferenceable(48) %7, i8 0, i64 24, i1 false)
  store i64 1073741824, ptr %6, align 8
  %8 = load i8, ptr getelementptr inbounds (i8, ptr @_ZN12_GLOBAL__N_133SampleProfileEvenFlowDistributionE, i64 128), align 8
  %9 = and i8 %8, 1
  store i8 %9, ptr %2, align 8
  %10 = load i8, ptr getelementptr inbounds (i8, ptr @_ZN12_GLOBAL__N_129SampleProfileRebalanceUnknownE, i64 128), align 8
  %11 = and i8 %10, 1
  store i8 %11, ptr %3, align 1
  %12 = load i8, ptr getelementptr inbounds (i8, ptr @_ZN12_GLOBAL__N_124SampleProfileJoinIslandsE, i64 128), align 8
  %13 = and i8 %12, 1
  store i8 %13, ptr %4, align 2
  %14 = load i32, ptr getelementptr inbounds (i8, ptr @_ZN12_GLOBAL__N_130SampleProfileProfiCostBlockIncE, i64 128), align 8
  store i32 %14, ptr %5, align 4
  %15 = load i32, ptr getelementptr inbounds (i8, ptr @_ZN12_GLOBAL__N_130SampleProfileProfiCostBlockDecE, i64 128), align 8
  %16 = getelementptr inbounds nuw i8, ptr %2, i64 8
  store i32 %15, ptr %16, align 8
  %17 = load i32, ptr getelementptr inbounds (i8, ptr @_ZN12_GLOBAL__N_135SampleProfileProfiCostBlockEntryIncE, i64 128), align 8
  %18 = getelementptr inbounds nuw i8, ptr %2, i64 16
  store i32 %17, ptr %18, align 8
  %19 = load i32, ptr getelementptr inbounds (i8, ptr @_ZN12_GLOBAL__N_135SampleProfileProfiCostBlockEntryDecE, i64 128), align 8
  %20 = getelementptr inbounds nuw i8, ptr %2, i64 20
  store i32 %19, ptr %20, align 4
  %21 = load i32, ptr getelementptr inbounds (i8, ptr @_ZN12_GLOBAL__N_134SampleProfileProfiCostBlockZeroIncE, i64 128), align 8
  %22 = getelementptr inbounds nuw i8, ptr %2, i64 12
  store i32 %21, ptr %22, align 4
  %23 = load i32, ptr getelementptr inbounds (i8, ptr @_ZN12_GLOBAL__N_137SampleProfileProfiCostBlockUnknownIncE, i64 128), align 8
  %24 = getelementptr inbounds nuw i8, ptr %2, i64 24
  store i32 %23, ptr %24, align 8
  call void @_ZN4llvm18applyFlowInferenceERKNS_11ProfiParamsERNS_12FlowFunctionE(ptr noundef nonnull align 8 dereferenceable(64) %2, ptr noundef nonnull align 8 dereferenceable(56) %0)
  ret void
}